target datalayout = "e-m:e-p270:32:32-p271:32:32-p272:64:64-i64:64-i128:128-f80:128-n8:16:32:64-S128"
target triple = "x86_64-pc-linux-gnu"

%struct.FxuHeapDouble = type { ptr, i32, i32, i32 }
%struct.FxuDouble = type { i32, i32, i32, i32, %struct.FxuListPair, ptr, ptr, ptr }
%struct.FxuListPair = type { ptr, ptr, i32 }

; Function Attrs: nounwind uwtable
define void @Fxu_HeapDoubleDelete(ptr noundef %0, ptr noundef %1) #0 {
  %3 = alloca ptr, align 8
  %4 = alloca ptr, align 8
  store ptr %0, ptr %3, align 8, !tbaa !3
  store ptr %1, ptr %4, align 8, !tbaa !14
  %5 = load ptr, ptr %3, align 8, !tbaa !3
  %6 = getelementptr inbounds nuw %struct.FxuHeapDouble, ptr %5, i32 0, i32 0
  %7 = load ptr, ptr %6, align 8, !tbaa !13
  %8 = load ptr, ptr %3, align 8, !tbaa !3
  %9 = getelementptr inbounds nuw %struct.FxuHeapDouble, ptr %8, i32 0, i32 1
  %10 = load i32, ptr %9, align 8, !tbaa !8
  %11 = add nsw i32 %10, -1
  store i32 %11, ptr %9, align 8, !tbaa !8
  %12 = sext i32 %10 to i64
  %13 = getelementptr inbounds ptr, ptr %7, i64 %12
  %14 = load ptr, ptr %13, align 8, !tbaa !14
  %15 = load ptr, ptr %3, align 8, !tbaa !3
  %16 = getelementptr inbounds nuw %struct.FxuHeapDouble, ptr %15, i32 0, i32 0
  %17 = load ptr, ptr %16, align 8, !tbaa !13
  %18 = load ptr, ptr %4, align 8, !tbaa !14
  %19 = getelementptr inbounds nuw %struct.FxuDouble, ptr %18, i32 0, i32 1
  %20 = load i32, ptr %19, align 4, !tbaa !27
  %21 = sext i32 %20 to i64
  %22 = getelementptr inbounds ptr, ptr %17, i64 %21
  store ptr %14, ptr %22, align 8, !tbaa !14
  %23 = load ptr, ptr %4, align 8, !tbaa !14
  %24 = getelementptr inbounds nuw %struct.FxuDouble, ptr %23, i32 0, i32 1
  %25 = load i32, ptr %24, align 4, !tbaa !27
  %26 = load ptr, ptr %3, align 8, !tbaa !3
  %27 = getelementptr inbounds nuw %struct.FxuHeapDouble, ptr %26, i32 0, i32 0
  %28 = load ptr, ptr %27, align 8, !tbaa !13
  %29 = load ptr, ptr %4, align 8, !tbaa !14
  %30 = getelementptr inbounds nuw %struct.FxuDouble, ptr %29, i32 0, i32 1
  %31 = load i32, ptr %30, align 4, !tbaa !27
  %32 = sext i32 %31 to i64
  %33 = getelementptr inbounds ptr, ptr %28, i64 %32
  %34 = load ptr, ptr %33, align 8, !tbaa !14
  %35 = getelementptr inbounds nuw %struct.FxuDouble, ptr %34, i32 0, i32 1
  store i32 %25, ptr %35, align 4, !tbaa !27
  %36 = load ptr, ptr %3, align 8, !tbaa !3
  %37 = load ptr, ptr %3, align 8, !tbaa !3
  %38 = getelementptr inbounds nuw %struct.FxuHeapDouble, ptr %37, i32 0, i32 0
  %39 = load ptr, ptr %38, align 8, !tbaa !13
  %40 = load ptr, ptr %4, align 8, !tbaa !14
  %41 = getelementptr inbounds nuw %struct.FxuDouble, ptr %40, i32 0, i32 1
  %42 = load i32, ptr %41, align 4, !tbaa !27
  %43 = sext i32 %42 to i64
  %44 = getelementptr inbounds ptr, ptr %39, i64 %43
  %45 = load ptr, ptr %44, align 8, !tbaa !14
  call void @Fxu_HeapDoubleUpdate(ptr noundef %36, ptr noundef %45)
  %46 = load ptr, ptr %4, align 8, !tbaa !14
  %47 = getelementptr inbounds nuw %struct.FxuDouble, ptr %46, i32 0, i32 1
  store i32 0, ptr %47, align 4, !tbaa !27
  ret void
}