; Function Attrs: nofree norecurse nosync nounwind memory(readwrite, inaccessiblemem: none) uwtable
define void @Fxu_HeapDoubleDelete(ptr noundef captures(none) %0, ptr noundef captures(none) %1) local_unnamed_addr #9 {
  %3 = load ptr, ptr %0, align 8, !tbaa !10
  %4 = getelementptr inbounds nuw i8, ptr %0, i64 8
  %5 = load i32, ptr %4, align 8, !tbaa !13
  %6 = add nsw i32 %5, -1
  store i32 %6, ptr %4, align 8, !tbaa !13
  %7 = sext i32 %5 to i64
  %8 = getelementptr inbounds ptr, ptr %3, i64 %7
  %9 = load ptr, ptr %8, align 8, !tbaa !11
  %10 = getelementptr inbounds nuw i8, ptr %1, i64 4
  %11 = load i32, ptr %10, align 4, !tbaa !22
  %12 = sext i32 %11 to i64
  %13 = getelementptr inbounds ptr, ptr %3, i64 %12
  store ptr %9, ptr %13, align 8, !tbaa !11
  %14 = getelementptr inbounds nuw i8, ptr %9, i64 4
  store i32 %11, ptr %14, align 4, !tbaa !22
  tail call void @Fxu_HeapDoubleUpdate(ptr noundef nonnull %0, ptr noundef %9)
  store i32 0, ptr %10, align 4, !tbaa !22
  ret void
}